; Function Attrs: mustprogress uwtable
define void @_ZNK6casadi6Switch4findERSt3mapIPNS_16FunctionInternalENS_8FunctionESt4lessIS3_ESaISt4pairIKS3_S4_EEEx(ptr noundef nonnull align 8 dereferenceable(1346) %0, ptr noundef nonnull align 1 %1, i64 noundef %2) unnamed_addr #3 align 2 {
  %4 = getelementptr inbounds nuw i8, ptr %0, i64 1312
  %5 = load ptr, ptr %4, align 8, !tbaa !11
  %6 = getelementptr inbounds nuw i8, ptr %0, i64 1320
  %7 = load ptr, ptr %6, align 8, !tbaa !11
  %.not11 = icmp eq ptr %5, %7
  br i1 %.not11, label %._crit_edge, label %.lr.ph

._crit_edge:                                      ; preds = %12, %3
  %8 = getelementptr inbounds nuw i8, ptr %0, i64 1336
  %9 = tail call noundef zeroext i1 @_ZNK6casadi13GenericSharedINS_12SharedObjectENS_20SharedObjectInternalEE7is_nullEv(ptr noundef nonnull align 8 dereferenceable(8) %8)
  br i1 %9, label %15, label %14

.lr.ph:                                           ; preds = %3, %12
  %.sroa.08.012 = phi ptr [ %13, %12 ], [ %5, %3 ]
  %10 = tail call noundef zeroext i1 @_ZNK6casadi13GenericSharedINS_12SharedObjectENS_20SharedObjectInternalEE7is_nullEv(ptr noundef nonnull align 8 dereferenceable(8) %.sroa.08.012)
  br i1 %10, label %12, label %11

11:                                               ; preds = %.lr.ph
  tail call void @_ZNK6casadi16FunctionInternal12add_embeddedERSt3mapIPS0_NS_8FunctionESt4lessIS2_ESaISt4pairIKS2_S3_EEERKS3_x(ptr noundef nonnull align 8 dereferenceable(1312) %0, ptr noundef nonnull align 1 %1, ptr noundef nonnull align 8 dereferenceable(8) %.sroa.08.012, i64 noundef %2)
  br label %12

12:                                               ; preds = %11, %.lr.ph
  %13 = getelementptr inbounds nuw i8, ptr %.sroa.08.012, i64 8
  %.not = icmp eq ptr %13, %7
  br i1 %.not, label %._crit_edge, label %.lr.ph

14:                                               ; preds = %._crit_edge
  tail call void @_ZNK6casadi16FunctionInternal12add_embeddedERSt3mapIPS0_NS_8FunctionESt4lessIS2_ESaISt4pairIKS2_S3_EEERKS3_x(ptr noundef nonnull align 8 dereferenceable(1312) %0, ptr noundef nonnull align 1 %1, ptr noundef nonnull align 8 dereferenceable(8) %8, i64 noundef %2)
  br label %15

15:                                               ; preds = %14, %._crit_edge
  ret void
}